target datalayout = "e-m:e-p270:32:32-p271:32:32-p272:64:64-i64:64-i128:128-f80:128-n8:16:32:64-S128"
target triple = "x86_64-pc-linux-gnu"

%"struct.std::__detail::_List_node_header" = type { %"struct.std::__detail::_List_node_base", i64 }
%"struct.std::__detail::_List_node_base" = type { ptr, ptr }
%"class.glslang::TQualifier" = type <{ ptr, i64, i8, [3 x i8], i32, i32, i64, i64, i8, i8, i8, i8, i8, [3 x i8], i32, i8, i8, i8, i8, i32, ptr, i8, i8, [6 x i8] }>
%"struct.glslang::TSourceLoc" = type { ptr, i32, i32, i32 }
%"class.glslang::TIntermTyped" = type { %class.TIntermNode, %"class.glslang::TType" }
%class.TIntermNode = type { ptr, %"struct.glslang::TSourceLoc" }
%"class.glslang::TType" = type { ptr, i32, [4 x i8], %"class.glslang::TQualifier", ptr, %union.anon.267, ptr, ptr, %"struct.glslang::TSampler", ptr, ptr }
%union.anon.267 = type { ptr }
%"struct.glslang::TSampler" = type { i32 }
%"struct.std::_List_const_iterator" = type { ptr }
%"struct.glslang::TAttributeArgs" = type { i32, ptr }
%"class.std::__cxx11::_List_base.311" = type { %"struct.std::__cxx11::_List_base<glslang::TAttributeArgs, glslang::pool_allocator<glslang::TAttributeArgs>>::_List_impl" }
%"struct.std::__cxx11::_List_base<glslang::TAttributeArgs, glslang::pool_allocator<glslang::TAttributeArgs>>::_List_impl" = type { %"class.glslang::pool_allocator.312", %"struct.std::__detail::_List_node_header" }
%"class.glslang::pool_allocator.312" = type { ptr }
%"class.glslang::TIntermSelection" = type <{ %"class.glslang::TIntermTyped", ptr, ptr, ptr, i8, i8, i8, [5 x i8] }>
%"struct.std::_List_node.648" = type { %"struct.std::__detail::_List_node_base", %"struct.__gnu_cxx::__aligned_membuf.649" }
%"struct.__gnu_cxx::__aligned_membuf.649" = type { [16 x i8] }

@.str.5 = private unnamed_addr constant [1 x i8] zeroinitializer, align 1
@.str.324 = private unnamed_addr constant [40 x i8] c"attribute does not apply to a selection\00", align 1

; Function Attrs: mustprogress nounwind uwtable
define linkonce_odr noundef ptr @_ZNK9__gnu_cxx16__aligned_membufIN7glslang14TAttributeArgsEE7_M_addrEv(ptr noundef nonnull align 8 dereferenceable(16) %0) #0 comdat align 2 {
  %2 = alloca ptr, align 8
  store ptr %0, ptr %2, align 8
  %3 = load ptr, ptr %2, align 8
  %4 = getelementptr inbounds %"struct.__gnu_cxx::__aligned_membuf.649", ptr %3, i32 0, i32 0
  ret ptr %4
}

; Function Attrs: mustprogress nounwind uwtable
define linkonce_odr noundef ptr @_ZNK9__gnu_cxx16__aligned_membufIN7glslang14TAttributeArgsEE6_M_ptrEv(ptr noundef nonnull align 8 dereferenceable(16) %0) #0 comdat align 2 {
  %2 = alloca ptr, align 8
  store ptr %0, ptr %2, align 8
  %3 = load ptr, ptr %2, align 8
  %4 = call noundef ptr @_ZNK9__gnu_cxx16__aligned_membufIN7glslang14TAttributeArgsEE7_M_addrEv(ptr noundef nonnull align 8 dereferenceable(16) %3) #13
  ret ptr %4
}

; Function Attrs: mustprogress nounwind uwtable
define linkonce_odr noundef ptr @_ZNKSt10_List_nodeIN7glslang14TAttributeArgsEE9_M_valptrEv(ptr noundef nonnull align 8 dereferenceable(32) %0) #0 comdat align 2 {
  %2 = alloca ptr, align 8
  store ptr %0, ptr %2, align 8
  %3 = load ptr, ptr %2, align 8
  %4 = getelementptr inbounds %"struct.std::_List_node.648", ptr %3, i32 0, i32 1
  %5 = call noundef ptr @_ZNK9__gnu_cxx16__aligned_membufIN7glslang14TAttributeArgsEE6_M_ptrEv(ptr noundef nonnull align 8 dereferenceable(16) %4) #13
  ret ptr %5
}

; Function Attrs: mustprogress nounwind uwtable
define linkonce_odr void @_ZNSt20_List_const_iteratorIN7glslang14TAttributeArgsEEC2EPKNSt8__detail15_List_node_baseE(ptr noundef nonnull align 8 dereferenceable(8) %0, ptr noundef %1) unnamed_addr #0 comdat align 2 {
  %3 = alloca ptr, align 8
  %4 = alloca ptr, align 8
  store ptr %0, ptr %3, align 8
  store ptr %1, ptr %4, align 8
  %5 = load ptr, ptr %3, align 8
  %6 = getelementptr inbounds %"struct.std::_List_const_iterator", ptr %5, i32 0, i32 0
  %7 = load ptr, ptr %4, align 8
  store ptr %7, ptr %6, align 8
  ret void
}

; Function Attrs: mustprogress nounwind uwtable
define linkonce_odr noundef nonnull align 8 dereferenceable(8) ptr @_ZNSt20_List_const_iteratorIN7glslang14TAttributeArgsEEppEv(ptr noundef nonnull align 8 dereferenceable(8) %0) #0 comdat align 2 {
  %2 = alloca ptr, align 8
  store ptr %0, ptr %2, align 8
  %3 = load ptr, ptr %2, align 8
  %4 = getelementptr inbounds %"struct.std::_List_const_iterator", ptr %3, i32 0, i32 0
  %5 = load ptr, ptr %4, align 8
  %6 = getelementptr inbounds %"struct.std::__detail::_List_node_base", ptr %5, i32 0, i32 0
  %7 = load ptr, ptr %6, align 8
  %8 = getelementptr inbounds %"struct.std::_List_const_iterator", ptr %3, i32 0, i32 0
  store ptr %7, ptr %8, align 8
  ret ptr %3
}

; Function Attrs: mustprogress nounwind uwtable
define linkonce_odr void @_ZN7glslang16TIntermSelection14setDontFlattenEv(ptr noundef nonnull align 8 dereferenceable(211) %0) #0 comdat align 2 {
  %2 = alloca ptr, align 8
  store ptr %0, ptr %2, align 8
  %3 = load ptr, ptr %2, align 8
  %4 = getelementptr inbounds %"class.glslang::TIntermSelection", ptr %3, i32 0, i32 6
  store i8 1, ptr %4, align 2
  ret void
}

; Function Attrs: mustprogress nounwind uwtable
define linkonce_odr void @_ZN7glslang16TIntermSelection10setFlattenEv(ptr noundef nonnull align 8 dereferenceable(211) %0) #0 comdat align 2 {
  %2 = alloca ptr, align 8
  store ptr %0, ptr %2, align 8
  %3 = load ptr, ptr %2, align 8
  %4 = getelementptr inbounds %"class.glslang::TIntermSelection", ptr %3, i32 0, i32 5
  store i8 1, ptr %4, align 1
  ret void
}

; Function Attrs: mustprogress nounwind uwtable
define linkonce_odr noundef ptr @_ZNKSt20_List_const_iteratorIN7glslang14TAttributeArgsEEptEv(ptr noundef nonnull align 8 dereferenceable(8) %0) #0 comdat align 2 {
  %2 = alloca ptr, align 8
  store ptr %0, ptr %2, align 8
  %3 = load ptr, ptr %2, align 8
  %4 = getelementptr inbounds %"struct.std::_List_const_iterator", ptr %3, i32 0, i32 0
  %5 = load ptr, ptr %4, align 8
  %6 = call noundef ptr @_ZNKSt10_List_nodeIN7glslang14TAttributeArgsEE9_M_valptrEv(ptr noundef nonnull align 8 dereferenceable(32) %5)
  ret ptr %6
}

; Function Attrs: mustprogress nounwind uwtable
define linkonce_odr noundef zeroext i1 @_ZStneRKSt20_List_const_iteratorIN7glslang14TAttributeArgsEES4_(ptr noundef nonnull align 8 dereferenceable(8) %0, ptr noundef nonnull align 8 dereferenceable(8) %1) #0 comdat {
  %3 = alloca ptr, align 8
  %4 = alloca ptr, align 8
  store ptr %0, ptr %3, align 8
  store ptr %1, ptr %4, align 8
  %5 = load ptr, ptr %3, align 8
  %6 = getelementptr inbounds %"struct.std::_List_const_iterator", ptr %5, i32 0, i32 0
  %7 = load ptr, ptr %6, align 8
  %8 = load ptr, ptr %4, align 8
  %9 = getelementptr inbounds %"struct.std::_List_const_iterator", ptr %8, i32 0, i32 0
  %10 = load ptr, ptr %9, align 8
  %11 = icmp ne ptr %7, %10
  ret i1 %11
}

; Function Attrs: mustprogress nounwind uwtable
define linkonce_odr ptr @_ZNKSt7__cxx114listIN7glslang14TAttributeArgsENS1_14pool_allocatorIS2_EEE3endEv(ptr noundef nonnull align 8 dereferenceable(32) %0) #0 comdat align 2 {
  %2 = alloca %"struct.std::_List_const_iterator", align 8
  %3 = alloca ptr, align 8
  store ptr %0, ptr %3, align 8
  %4 = load ptr, ptr %3, align 8
  %5 = getelementptr inbounds %"class.std::__cxx11::_List_base.311", ptr %4, i32 0, i32 0
  %6 = getelementptr inbounds %"struct.std::__cxx11::_List_base<glslang::TAttributeArgs, glslang::pool_allocator<glslang::TAttributeArgs>>::_List_impl", ptr %5, i32 0, i32 1
  call void @_ZNSt20_List_const_iteratorIN7glslang14TAttributeArgsEEC2EPKNSt8__detail15_List_node_baseE(ptr noundef nonnull align 8 dereferenceable(8) %2, ptr noundef %6) #13
  %7 = getelementptr inbounds %"struct.std::_List_const_iterator", ptr %2, i32 0, i32 0
  %8 = load ptr, ptr %7, align 8
  ret ptr %8
}

; Function Attrs: mustprogress nounwind uwtable
define linkonce_odr ptr @_ZNKSt7__cxx114listIN7glslang14TAttributeArgsENS1_14pool_allocatorIS2_EEE5beginEv(ptr noundef nonnull align 8 dereferenceable(32) %0) #0 comdat align 2 {
  %2 = alloca %"struct.std::_List_const_iterator", align 8
  %3 = alloca ptr, align 8
  store ptr %0, ptr %3, align 8
  %4 = load ptr, ptr %3, align 8
  %5 = getelementptr inbounds %"class.std::__cxx11::_List_base.311", ptr %4, i32 0, i32 0
  %6 = getelementptr inbounds %"struct.std::__cxx11::_List_base<glslang::TAttributeArgs, glslang::pool_allocator<glslang::TAttributeArgs>>::_List_impl", ptr %5, i32 0, i32 1
  %7 = getelementptr inbounds %"struct.std::__detail::_List_node_base", ptr %6, i32 0, i32 0
  %8 = load ptr, ptr %7, align 8
  call void @_ZNSt20_List_const_iteratorIN7glslang14TAttributeArgsEEC2EPKNSt8__detail15_List_node_baseE(ptr noundef nonnull align 8 dereferenceable(8) %2, ptr noundef %8) #13
  %9 = getelementptr inbounds %"struct.std::_List_const_iterator", ptr %2, i32 0, i32 0
  %10 = load ptr, ptr %9, align 8
  ret ptr %10
}

; Function Attrs: mustprogress nounwind uwtable
define void @_ZN7glslang16HlslParseContext25handleSelectionAttributesERKNS_10TSourceLocEPNS_16TIntermSelectionERKNS_5TListINS_14TAttributeArgsEEE(ptr noundef nonnull align 8 dereferenceable(2489) %0, ptr noundef nonnull align 8 dereferenceable(24) %1, ptr noundef %2, ptr noundef nonnull align 8 dereferenceable(32) %3) #0 align 2 {
  %5 = alloca ptr, align 8
  %6 = alloca ptr, align 8
  %7 = alloca ptr, align 8
  %8 = alloca ptr, align 8
  %9 = alloca %"struct.std::_List_const_iterator", align 8
  %10 = alloca %"struct.std::_List_const_iterator", align 8
  store ptr %0, ptr %5, align 8
  store ptr %1, ptr %6, align 8
  store ptr %2, ptr %7, align 8
  store ptr %3, ptr %8, align 8
  %11 = load ptr, ptr %5, align 8
  %12 = load ptr, ptr %7, align 8
  %13 = icmp eq ptr %12, null
  br i1 %13, label %14, label %15

14:                                               ; preds = %4
  br label %40

15:                                               ; preds = %4
  %16 = load ptr, ptr %8, align 8
  %17 = call ptr @_ZNKSt7__cxx114listIN7glslang14TAttributeArgsENS1_14pool_allocatorIS2_EEE5beginEv(ptr noundef nonnull align 8 dereferenceable(32) %16) #13
  %18 = getelementptr inbounds %"struct.std::_List_const_iterator", ptr %9, i32 0, i32 0
  store ptr %17, ptr %18, align 8
  br label %19

19:                                               ; preds = %38, %15
  %20 = load ptr, ptr %8, align 8
  %21 = call ptr @_ZNKSt7__cxx114listIN7glslang14TAttributeArgsENS1_14pool_allocatorIS2_EEE3endEv(ptr noundef nonnull align 8 dereferenceable(32) %20) #13
  %22 = getelementptr inbounds %"struct.std::_List_const_iterator", ptr %10, i32 0, i32 0
  store ptr %21, ptr %22, align 8
  %23 = call noundef zeroext i1 @_ZStneRKSt20_List_const_iteratorIN7glslang14TAttributeArgsEES4_(ptr noundef nonnull align 8 dereferenceable(8) %9, ptr noundef nonnull align 8 dereferenceable(8) %10) #13
  br i1 %23, label %24, label %40

24:                                               ; preds = %19
  %25 = call noundef ptr @_ZNKSt20_List_const_iteratorIN7glslang14TAttributeArgsEEptEv(ptr noundef nonnull align 8 dereferenceable(8) %9) #13
  %26 = getelementptr inbounds %"struct.glslang::TAttributeArgs", ptr %25, i32 0, i32 0
  %27 = load i32, ptr %26, align 8
  switch i32 %27, label %32 [
    i32 7, label %28
    i32 2, label %30
  ]

28:                                               ; preds = %24
  %29 = load ptr, ptr %7, align 8
  call void @_ZN7glslang16TIntermSelection10setFlattenEv(ptr noundef nonnull align 8 dereferenceable(211) %29)
  br label %37

30:                                               ; preds = %24
  %31 = load ptr, ptr %7, align 8
  call void @_ZN7glslang16TIntermSelection14setDontFlattenEv(ptr noundef nonnull align 8 dereferenceable(211) %31)
  br label %37

32:                                               ; preds = %24
  %33 = load ptr, ptr %6, align 8
  %34 = load ptr, ptr %11, align 8
  %35 = getelementptr inbounds ptr, ptr %34, i64 44
  %36 = load ptr, ptr %35, align 8
  call void (ptr, ptr, ptr, ptr, ptr, ...) %36(ptr noundef nonnull align 8 dereferenceable(1280) %11, ptr noundef nonnull align 8 dereferenceable(24) %33, ptr noundef @.str.324, ptr noundef @.str.5, ptr noundef @.str.5)
  br label %37

37:                                               ; preds = %32, %30, %28
  br label %38

38:                                               ; preds = %37
  %39 = call noundef nonnull align 8 dereferenceable(8) ptr @_ZNSt20_List_const_iteratorIN7glslang14TAttributeArgsEEppEv(ptr noundef nonnull align 8 dereferenceable(8) %9) #13
  br label %19, !llvm.loop !98

40:                                               ; preds = %19, %14
  ret void
}