; Function Attrs: mustprogress nounwind uwtable
define void @_ZN7glslang16HlslParseContext25handleSelectionAttributesERKNS_10TSourceLocEPNS_16TIntermSelectionERKNS_5TListINS_14TAttributeArgsEEE(ptr noundef nonnull align 8 dereferenceable(2489) %0, ptr noundef nonnull align 8 dereferenceable(24) %1, ptr noundef writeonly %2, ptr noundef nonnull readonly align 8 dereferenceable(32) %3) local_unnamed_addr #0 align 2 {
  %5 = icmp eq ptr %2, null
  br i1 %5, label %.loopexit, label %6

6:                                                ; preds = %4
  %7 = getelementptr inbounds i8, ptr %3, i64 8
  %.sroa.07.010 = load ptr, ptr %7, align 8
  %.not11 = icmp eq ptr %.sroa.07.010, %7
  br i1 %.not11, label %.loopexit, label %.lr.ph

.lr.ph:                                           ; preds = %6
  %8 = getelementptr inbounds i8, ptr %2, i64 210
  %9 = getelementptr inbounds i8, ptr %2, i64 209
  br label %10

10:                                               ; preds = %.lr.ph, %19
  %.sroa.07.012 = phi ptr [ %.sroa.07.010, %.lr.ph ], [ %.sroa.07.0, %19 ]
  %11 = getelementptr inbounds i8, ptr %.sroa.07.012, i64 16
  %12 = load i32, ptr %11, align 8
  switch i32 %12, label %15 [
    i32 7, label %13
    i32 2, label %14
  ]

13:                                               ; preds = %10
  store i8 1, ptr %9, align 1
  br label %19

14:                                               ; preds = %10
  store i8 1, ptr %8, align 2
  br label %19

15:                                               ; preds = %10
  %16 = load ptr, ptr %0, align 8
  %17 = getelementptr inbounds i8, ptr %16, i64 352
  %18 = load ptr, ptr %17, align 8
  tail call void (ptr, ptr, ptr, ptr, ptr, ...) %18(ptr noundef nonnull align 8 dereferenceable(1280) %0, ptr noundef nonnull align 8 dereferenceable(24) %1, ptr noundef nonnull @.str.324, ptr noundef nonnull @.str.5, ptr noundef nonnull @.str.5) #24
  br label %19

19:                                               ; preds = %13, %14, %15
  %.sroa.07.0 = load ptr, ptr %.sroa.07.012, align 8
  %.not = icmp eq ptr %.sroa.07.0, %7
  br i1 %.not, label %.loopexit, label %10, !llvm.loop !304

.loopexit:                                        ; preds = %19, %6, %4
  ret void
}